target datalayout = "e-m:e-p270:32:32-p271:32:32-p272:64:64-i64:64-i128:128-f80:128-n8:16:32:64-S128"
target triple = "x86_64-pc-linux-gnu"

@_ZN7rocksdb16ThreadStatusUtil27thread_updater_local_cache_E = thread_local global ptr null, align 8

; Function Attrs: mustprogress uwtable
define noundef i32 @_ZN7rocksdb16ThreadStatusUtil18GetThreadOperationEv() #3 align 2 {
  %1 = alloca i32, align 4
  %2 = call align 8 ptr @llvm.threadlocal.address.p0(ptr align 8 @_ZN7rocksdb16ThreadStatusUtil27thread_updater_local_cache_E)
  %3 = load ptr, ptr %2, align 8, !tbaa !43
  %4 = icmp eq ptr %3, null
  br i1 %4, label %5, label %6

5:                                                ; preds = %0
  store i32 0, ptr %1, align 4
  br label %10

6:                                                ; preds = %0
  %7 = call align 8 ptr @llvm.threadlocal.address.p0(ptr align 8 @_ZN7rocksdb16ThreadStatusUtil27thread_updater_local_cache_E)
  %8 = load ptr, ptr %7, align 8, !tbaa !43
  %9 = call noundef i32 @_ZN7rocksdb19ThreadStatusUpdater18GetThreadOperationEv(ptr noundef nonnull align 8 dereferenceable(216) %8)
  store i32 %9, ptr %1, align 4
  br label %10

10:                                               ; preds = %6, %5
  %11 = load i32, ptr %1, align 4
  ret i32 %11
}