; Function Attrs: mustprogress uwtable
define noundef i32 @_ZN7rocksdb16ThreadStatusUtil18GetThreadOperationEv() local_unnamed_addr #3 align 2 {
  %1 = tail call align 8 ptr @llvm.threadlocal.address.p0(ptr align 8 @_ZN7rocksdb16ThreadStatusUtil27thread_updater_local_cache_E)
  %2 = load ptr, ptr %1, align 8, !tbaa !18
  %3 = icmp eq ptr %2, null
  br i1 %3, label %6, label %4

4:                                                ; preds = %0
  %5 = tail call noundef i32 @_ZN7rocksdb19ThreadStatusUpdater18GetThreadOperationEv(ptr noundef nonnull align 8 dereferenceable(216) %2)
  br label %6

6:                                                ; preds = %0, %4
  %.0 = phi i32 [ %5, %4 ], [ 0, %0 ]
  ret i32 %.0
}